; ModuleID = 'bench/folly/original/FollyMemcpy.cpp.ll'
source_filename = "bench/folly/original/FollyMemcpy.cpp.ll"
target datalayout = "e-m:e-p270:32:32-p271:32:32-p272:64:64-i64:64-i128:128-f80:128-n8:16:32:64-S128"
target triple = "x86_64-unknown-linux-gnu"

; Function Attrs: mustprogress nofree norecurse nosync nounwind willreturn memory(argmem: readwrite) uwtable
define noundef ptr @__folly_memcpy(ptr noundef returned writeonly %dst, ptr nocapture noundef readonly %src, i64 noundef %size) local_unnamed_addr #0 {
entry:
  %cmp = icmp eq i64 %size, 0
  br i1 %cmp, label %return, label %if.end

if.end:                                           ; preds = %entry
  tail call void @llvm.memmove.p0.p0.i64(ptr align 1 %dst, ptr align 1 %src, i64 %size, i1 false)
  br label %return

return:                                           ; preds = %if.end, %entry
  ret ptr %dst
}

; Function Attrs: mustprogress nocallback nofree nounwind willreturn memory(argmem: readwrite)
declare void @llvm.memmove.p0.p0.i64(ptr nocapture writeonly, ptr nocapture readonly, i64, i1 immarg) #1


!llvm.module.flags = !{!0, !1, !2, !3, !4, !5, !6}

!0 = !{i32 7, !"Dwarf Version", i32 5}
!1 = !{i32 2, !"Debug Info Version", i32 3}
!2 = !{i32 1, !"wchar_size", i32 4}
!3 = !{i32 7, !"openmp", i32 51}
!4 = !{i32 8, !"PIC Level", i32 2}
!5 = !{i32 7, !"uwtable", i32 2}
!6 = !{i32 7, !"debug-info-assignment-tracking", i1 true}
